; Function Attrs: mustprogress nounwind uwtable
define internal fastcc void @_ZZN12_GLOBAL__N_14Impl5startEiRKSt8functionIFvRKSt10shared_ptrIN3dap12ReaderWriterEEEERKS1_IFvPKcEEENUlvE_D2Ev(ptr noundef nonnull align 8 dereferenceable(72) %0) unnamed_addr #4 align 2 personality ptr @__gxx_personality_v0 {
  %2 = getelementptr inbounds i8, ptr %0, i64 56
  %3 = load ptr, ptr %2, align 8
  %.not.i.i = icmp eq ptr %3, null
  br i1 %.not.i.i, label %_ZNSt8functionIFvPKcEED2Ev.exit, label %4

4:                                                ; preds = %1
  %5 = getelementptr inbounds i8, ptr %0, i64 40
  %6 = invoke noundef zeroext i1 %3(ptr noundef nonnull align 8 dereferenceable(16) %5, ptr noundef nonnull align 8 dereferenceable(16) %5, i32 noundef 3)
          to label %_ZNSt8functionIFvPKcEED2Ev.exit unwind label %7

7:                                                ; preds = %4
  %8 = landingpad { ptr, i32 }
          catch ptr null
  %9 = extractvalue { ptr, i32 } %8, 0
  tail call void @__clang_call_terminate(ptr %9) #13
  unreachable

_ZNSt8functionIFvPKcEED2Ev.exit:                  ; preds = %1, %4
  %10 = getelementptr inbounds i8, ptr %0, i64 24
  %11 = load ptr, ptr %10, align 8
  %.not.i.i1 = icmp eq ptr %11, null
  br i1 %.not.i.i1, label %_ZNSt8functionIFvRKSt10shared_ptrIN3dap12ReaderWriterEEEED2Ev.exit, label %12

12:                                               ; preds = %_ZNSt8functionIFvPKcEED2Ev.exit
  %13 = getelementptr inbounds i8, ptr %0, i64 8
  %14 = invoke noundef zeroext i1 %11(ptr noundef nonnull align 8 dereferenceable(16) %13, ptr noundef nonnull align 8 dereferenceable(16) %13, i32 noundef 3)
          to label %_ZNSt8functionIFvRKSt10shared_ptrIN3dap12ReaderWriterEEEED2Ev.exit unwind label %15

15:                                               ; preds = %12
  %16 = landingpad { ptr, i32 }
          catch ptr null
  %17 = extractvalue { ptr, i32 } %16, 0
  tail call void @__clang_call_terminate(ptr %17) #13
  unreachable

_ZNSt8functionIFvRKSt10shared_ptrIN3dap12ReaderWriterEEEED2Ev.exit: ; preds = %_ZNSt8functionIFvPKcEED2Ev.exit, %12
  ret void
}